target datalayout = "e-m:e-p270:32:32-p271:32:32-p272:64:64-i64:64-i128:128-f80:128-n8:16:32:64-S128"
target triple = "x86_64-pc-linux-gnu"

%struct.SRTContext = type { ptr, ptr, %struct.AVBPrint, [64 x i8], i32, i32 }
%struct.AVBPrint = type { ptr, i32, i32, i32, [1 x i8], [1000 x i8] }

@.str.16 = private unnamed_addr constant [8 x i8] c"{\\an%d}\00", align 1

; Function Attrs: nounwind uwtable
define internal void @srt_alignment_cb(ptr noundef %0, i32 noundef %1) #1 {
  %3 = alloca ptr, align 8
  %4 = alloca i32, align 4
  %5 = alloca ptr, align 8
  store ptr %0, ptr %3, align 8, !tbaa !29
  store i32 %1, ptr %4, align 4, !tbaa !37
  call void @llvm.lifetime.start.p0(i64 8, ptr %5) #7
  %6 = load ptr, ptr %3, align 8, !tbaa !29
  store ptr %6, ptr %5, align 8, !tbaa !29
  %7 = load ptr, ptr %5, align 8, !tbaa !29
  %8 = getelementptr inbounds nuw %struct.SRTContext, ptr %7, i32 0, i32 5
  %9 = load i32, ptr %8, align 4, !tbaa !50
  %10 = icmp ne i32 %9, 0
  br i1 %10, label %19, label %11

11:                                               ; preds = %2
  %12 = load i32, ptr %4, align 4, !tbaa !37
  %13 = icmp sge i32 %12, 0
  br i1 %13, label %14, label %19

14:                                               ; preds = %11
  %15 = load ptr, ptr %5, align 8, !tbaa !29
  %16 = load i32, ptr %4, align 4, !tbaa !37
  call void (ptr, ptr, ...) @srt_print(ptr noundef %15, ptr noundef @.str.16, i32 noundef %16)
  %17 = load ptr, ptr %5, align 8, !tbaa !29
  %18 = getelementptr inbounds nuw %struct.SRTContext, ptr %17, i32 0, i32 5
  store i32 1, ptr %18, align 4, !tbaa !50
  br label %19

19:                                               ; preds = %14, %11, %2
  call void @llvm.lifetime.end.p0(i64 8, ptr %5) #7
  ret void
}