; Function Attrs: nounwind uwtable
define internal void @srt_alignment_cb(ptr noundef %0, i32 noundef %1) #1 {
  %3 = getelementptr inbounds nuw i8, ptr %0, i64 1108
  %4 = load i32, ptr %3, align 4, !tbaa !45
  %5 = icmp eq i32 %4, 0
  %6 = icmp sgt i32 %1, -1
  %or.cond = and i1 %6, %5
  br i1 %or.cond, label %7, label %8

7:                                                ; preds = %2
  tail call void (ptr, ptr, ...) @srt_print(ptr noundef nonnull %0, ptr noundef nonnull @.str.16, i32 noundef %1)
  store i32 1, ptr %3, align 4, !tbaa !45
  br label %8

8:                                                ; preds = %7, %2
  ret void
}